Certificate:
    Data:
        Version: 3 (0x2)
        Serial Number: 1 (0x1)
    Signature Algorithm: sha256WithRSAEncryption
        Issuer: C=US, ST=Unset, L=Unset, O=Unset, CN=www.example.com
        Validity
            Not Before: Jun  8 20:00:45 2015 GMT
            Not After : Jun  5 20:00:45 2025 GMT
        Subject: C=US, ST=Unset, O=Unset, CN=www.example.com
        Subject Public Key Info:
            Public Key Algorithm: rsaEncryption
                Public-Key: (2048 bit)
                Modulus:
                    00:96:3d:45:43:e9:ea:f8:e6:09:66:65:74:27:34:
                    c4:89:33:a2:82:91:52:db:35:95:3b:55:bc:4d:fb:
                    21:9f:e7:7f:e6:3d:54:b8:74:45:d1:d0:9c:43:27:
                    c0:3c:41:38:40:8e:28:75:13:fb:84:59:de:39:c9:
                    fe:a5:56:0f:1c:04:07:a6:99:69:bf:94:ce:53:2a:
                    b5:40:ac:41:01:a8:d3:1c:03:1e:7c:2d:ae:2c:48:
                    04:b3:7f:1e:f2:54:0c:18:d9:16:37:e5:f7:98:db:
                    55:0b:99:56:6f:4b:a0:65:10:72:59:8f:d8:55:7c:
                    00:f1:70:a6:cd:66:0b:d4:49:57:42:3c:aa:8f:92:
                    11:bc:8d:ac:73:21:44:dc:3a:b7:c3:55:97:01:5d:
                    e1:f4:b0:d1:02:a5:d2:5a:77:b3:bf:d8:4e:ce:cc:
                    8d:f8:6e:38:1b:41:dc:32:92:f5:ae:8e:24:9c:40:
                    94:1a:35:ac:74:13:af:3d:68:73:9a:88:f4:7d:9d:
                    a5:82:27:fa:6d:c2:d5:c6:fb:e8:9a:7d:8d:54:bc:
                    61:da:65:da:46:8b:47:ef:3e:9b:da:d3:57:fc:75:
                    7b:3a:b2:7a:fd:87:cb:d4:15:0d:b6:66:17:fd:3d:
                    7a:af:7c:a3:bd:a8:7c:28:18:e4:5b:0c:34:01:4e:
                    8e:d3
                Exponent: 65537 (0x10001)
        X509v3 extensions:
            X509v3 Basic Constraints: 
                CA:FALSE
            X509v3 Subject Key Identifier: 
                E5:A3:24:42:B2:98:6B:8B:72:4B:5F:A9:22:61:29:9E:E6:90:16:B3
            X509v3 Authority Key Identifier: 
                keyid:CF:F1:7A:C6:CA:F6:01:01:24:42:45:7C:45:93:DF:8E:E3:FF:1E:75

    Signature Algorithm: sha256WithRSAEncryption
         82:b9:04:38:90:4b:13:04:a6:80:b9:28:96:75:70:fc:c6:e8:
         dc:6c:06:ff:98:d9:44:99:94:da:da:7d:42:54:fc:36:35:b1:
         96:83:23:93:72:e6:85:fb:fd:12:0a:64:11:76:de:0a:4f:33:
         35:c7:4d:db:3c:fd:d2:da:fa:1d:ab:b6:34:b4:9d:30:b7:8c:
         24:29:c8:9f:64:e4:cf:a2:01:a7:b3:37:00:d2:a6:d2:7e:4a:
         cc:ff:82:18:a9:8c:a1:7b:41:81:1d:e3:00:f3:d3:c6:26:9c:
         ed:21:b3:fe:6b:17:d3:12:77:69:14:cc:e8:52:95:00:41:2c:
         67:d6:d1:9f:d1:5a:4b:5f:fb:62:01:fa:37:7e:e4:c7:e5:6f:
         53:dc:c2:21:e7:85:f2:25:05:2f:a2:9b:6d:82:1f:a5:89:43:
         ee:2a:b8:e1:75:f6:71:48:05:0f:1d:34:fe:91:62:bb:09:db:
         cb:09:0c:ce:27:ba:d2:0e:73:7d:54:bc:7a:76:8f:00:b1:74:
         7d:04:1d:88:c3:91:9f:61:03:b9:15:98:cf:38:14:a0:c7:1b:
         0f:a5:ff:12:05:15:24:ec:63:21:fa:c0:b1:43:91:3c:ed:53:
         31:01:a6:89:c1:ed:f2:ff:18:8e:43:8e:d6:fc:48:89:8f:6a:
         e9:32:b9:79
-----BEGIN CERTIFICATE-----
MIIDZjCCAk6gAwIBAgIBATANBgkqhkiG9w0BAQsFADBXMQswCQYDVQQGEwJVUzEO
MAwGA1UECAwFVW5zZXQxDjAMBgNVBAcMBVVuc2V0MQ4wDAYDVQQKDAVVbnNldDEY
MBYGA1UEAwwPd3d3LmV4YW1wbGUuY29tMB4XDTE1MDYwODIwMDA0NVoXDTI1MDYw
NTIwMDA0NVowRzELMAkGA1UEBhMCVVMxDjAMBgNVBAgMBVVuc2V0MQ4wDAYDVQQK
DAVVbnNldDEYMBYGA1UEAwwPd3d3LmV4YW1wbGUuY29tMIIBIjANBgkqhkiG9w0B
AQEFAAOCAQ8AMIIBCgKCAQEAlj1FQ+nq+OYJZmV0JzTEiTOigpFS2zWVO1W8Tfsh
n+d/5j1UuHRF0dCcQyfAPEE4QI4odRP7hFneOcn+pVYPHAQHpplpv5TOUyq1QKxB
AajTHAMefC2uLEgEs38e8lQMGNkWN+X3mNtVC5lWb0ugZRByWY/YVXwA8XCmzWYL
1ElXQjyqj5IRvI2scyFE3Dq3w1WXAV3h9LDRAqXSWnezv9hOzsyN+G44G0HcMpL1
ro4knECUGjWsdBOvPWhzmoj0fZ2lgif6bcLVxvvomn2NVLxh2mXaRotH7z6b2tNX
/HV7OrJ6/YfL1BUNtmYX/T16r3yjvah8KBjkWww0AU6O0wIDAQABo00wSzAJBgNV
HRMEAjAAMB0GA1UdDgQWBBTloyRCsphri3JLX6kiYSme5pAWszAfBgNVHSMEGDAW
gBTP8XrGyvYBASRCRXxFk9+O4/8edTANBgkqhkiG9w0BAQsFAAOCAQEAgrkEOJBL
EwSmgLkolnVw/Mbo3GwG/5jZRJmU2tp9QlT8NjWxloMjk3Lmhfv9EgpkEXbeCk8z
NcdN2zz90tr6Hau2NLSdMLeMJCnIn2Tkz6IBp7M3ANKm0n5KzP+CGKmMoXtBgR3j
APPTxiac7SGz/msX0xJ3aRTM6FKVAEEsZ9bRn9FaS1/7YgH6N37kx+VvU9zCIeeF
8iUFL6KbbYIfpYlD7iq44XX2cUgFDx00/pFiuwnbywkMzie60g5zfVS8enaPALF0
fQQdiMORn2EDuRWYzzgUoMcbD6X/EgUVJOxjIfrAsUORPO1TMQGmicHt8v8YjkOO
1vxIiY9q6TK5eQ==
-----END CERTIFICATE-----
